target datalayout = "e-m:e-p270:32:32-p271:32:32-p272:64:64-i64:64-i128:128-f80:128-n8:16:32:64-S128"
target triple = "x86_64-pc-linux-gnu"

%struct.Map_ManStruct_t_ = type { ptr, i32, ptr, i32, ptr, i32, i32, ptr, ptr, ptr, ptr, ptr, ptr, ptr, ptr, i32, i32, i32, i32, float, float, float, float, i32, i32, float, i32, i32, i32, i32, ptr, [6 x [2 x i32]], [10 x [32 x i32]], [32 x i32], [32 x i32], ptr, ptr, ptr, ptr, ptr, ptr, i32, i32, i32, i32, i32, i32, i64, i64, i64, i64, i64, i64, i64, i64, i64, i64, i64 }

; Function Attrs: nounwind uwtable
define i32 @Map_MappingCountLevels(ptr noundef %0) #0 {
  %2 = alloca ptr, align 8
  %3 = alloca i32, align 4
  %4 = alloca i32, align 4
  %5 = alloca i32, align 4
  store ptr %0, ptr %2, align 8, !tbaa !20
  call void @llvm.lifetime.start.p0(i64 4, ptr %3) #4
  call void @llvm.lifetime.start.p0(i64 4, ptr %4) #4
  call void @llvm.lifetime.start.p0(i64 4, ptr %5) #4
  store i32 -1, ptr %4, align 4, !tbaa !10
  store i32 0, ptr %3, align 4, !tbaa !10
  br label %6

6:                                                ; preds = %30, %1
  %7 = load i32, ptr %3, align 4, !tbaa !10
  %8 = load ptr, ptr %2, align 8, !tbaa !20
  %9 = getelementptr inbounds nuw %struct.Map_ManStruct_t_, ptr %8, i32 0, i32 5
  %10 = load i32, ptr %9, align 8, !tbaa !21
  %11 = icmp slt i32 %7, %10
  br i1 %11, label %12, label %33

12:                                               ; preds = %6
  %13 = load ptr, ptr %2, align 8, !tbaa !20
  %14 = getelementptr inbounds nuw %struct.Map_ManStruct_t_, ptr %13, i32 0, i32 4
  %15 = load ptr, ptr %14, align 8, !tbaa !32
  %16 = load i32, ptr %3, align 4, !tbaa !10
  %17 = sext i32 %16 to i64
  %18 = getelementptr inbounds ptr, ptr %15, i64 %17
  %19 = load ptr, ptr %18, align 8, !tbaa !3
  %20 = ptrtoint ptr %19 to i64
  %21 = and i64 %20, -2
  %22 = inttoptr i64 %21 to ptr
  %23 = call i32 @Map_MappingCountLevels_rec(ptr noundef %22)
  store i32 %23, ptr %5, align 4, !tbaa !10
  %24 = load i32, ptr %4, align 4, !tbaa !10
  %25 = load i32, ptr %5, align 4, !tbaa !10
  %26 = icmp slt i32 %24, %25
  br i1 %26, label %27, label %29

27:                                               ; preds = %12
  %28 = load i32, ptr %5, align 4, !tbaa !10
  store i32 %28, ptr %4, align 4, !tbaa !10
  br label %29

29:                                               ; preds = %27, %12
  br label %30

30:                                               ; preds = %29
  %31 = load i32, ptr %3, align 4, !tbaa !10
  %32 = add nsw i32 %31, 1
  store i32 %32, ptr %3, align 4, !tbaa !10
  br label %6, !llvm.loop !39

33:                                               ; preds = %6
  store i32 0, ptr %3, align 4, !tbaa !10
  br label %34

34:                                               ; preds = %51, %33
  %35 = load i32, ptr %3, align 4, !tbaa !10
  %36 = load ptr, ptr %2, align 8, !tbaa !20
  %37 = getelementptr inbounds nuw %struct.Map_ManStruct_t_, ptr %36, i32 0, i32 5
  %38 = load i32, ptr %37, align 8, !tbaa !21
  %39 = icmp slt i32 %35, %38
  br i1 %39, label %40, label %54

40:                                               ; preds = %34
  %41 = load ptr, ptr %2, align 8, !tbaa !20
  %42 = getelementptr inbounds nuw %struct.Map_ManStruct_t_, ptr %41, i32 0, i32 4
  %43 = load ptr, ptr %42, align 8, !tbaa !32
  %44 = load i32, ptr %3, align 4, !tbaa !10
  %45 = sext i32 %44 to i64
  %46 = getelementptr inbounds ptr, ptr %43, i64 %45
  %47 = load ptr, ptr %46, align 8, !tbaa !3
  %48 = ptrtoint ptr %47 to i64
  %49 = and i64 %48, -2
  %50 = inttoptr i64 %49 to ptr
  call void @Map_MappingUnmark_rec(ptr noundef %50)
  br label %51

51:                                               ; preds = %40
  %52 = load i32, ptr %3, align 4, !tbaa !10
  %53 = add nsw i32 %52, 1
  store i32 %53, ptr %3, align 4, !tbaa !10
  br label %34, !llvm.loop !40

54:                                               ; preds = %34
  %55 = load i32, ptr %4, align 4, !tbaa !10
  call void @llvm.lifetime.end.p0(i64 4, ptr %5) #4
  call void @llvm.lifetime.end.p0(i64 4, ptr %4) #4
  call void @llvm.lifetime.end.p0(i64 4, ptr %3) #4
  ret i32 %55
}