; Function Attrs: nounwind uwtable
define range(i32 -1, 65536) i32 @Map_MappingCountLevels(ptr noundef readonly captures(none) %0) local_unnamed_addr #0 {
  %2 = getelementptr inbounds nuw i8, ptr %0, i64 40
  %3 = load i32, ptr %2, align 8, !tbaa !16
  %4 = icmp sgt i32 %3, 0
  br i1 %4, label %.lr.ph, label %._crit_edge

.lr.ph:                                           ; preds = %1
  %5 = getelementptr inbounds nuw i8, ptr %0, i64 32
  br label %8

.preheader:                                       ; preds = %8
  %6 = icmp sgt i32 %16, 0
  br i1 %6, label %.lr.ph19, label %._crit_edge

.lr.ph19:                                         ; preds = %.preheader
  %7 = getelementptr inbounds nuw i8, ptr %0, i64 32
  br label %19

8:                                                ; preds = %.lr.ph, %8
  %indvars.iv = phi i64 [ 0, %.lr.ph ], [ %indvars.iv.next, %8 ]
  %.01316 = phi i32 [ -1, %.lr.ph ], [ %spec.select, %8 ]
  %9 = load ptr, ptr %5, align 8, !tbaa !30
  %10 = getelementptr inbounds nuw ptr, ptr %9, i64 %indvars.iv
  %11 = load ptr, ptr %10, align 8, !tbaa !31
  %12 = ptrtoint ptr %11 to i64
  %13 = and i64 %12, -2
  %14 = inttoptr i64 %13 to ptr
  %15 = tail call fastcc i32 @Map_MappingCountLevels_rec(ptr noundef %14)
  %spec.select = tail call i32 @llvm.smax.i32(i32 %.01316, i32 %15)
  %indvars.iv.next = add nuw nsw i64 %indvars.iv, 1
  %16 = load i32, ptr %2, align 8, !tbaa !16
  %17 = sext i32 %16 to i64
  %18 = icmp slt i64 %indvars.iv.next, %17
  br i1 %18, label %8, label %.preheader, !llvm.loop !36

19:                                               ; preds = %.lr.ph19, %19
  %indvars.iv21 = phi i64 [ 0, %.lr.ph19 ], [ %indvars.iv.next22, %19 ]
  %20 = load ptr, ptr %7, align 8, !tbaa !30
  %21 = getelementptr inbounds nuw ptr, ptr %20, i64 %indvars.iv21
  %22 = load ptr, ptr %21, align 8, !tbaa !31
  %23 = ptrtoint ptr %22 to i64
  %24 = and i64 %23, -2
  %25 = inttoptr i64 %24 to ptr
  tail call void @Map_MappingUnmark_rec(ptr noundef %25)
  %indvars.iv.next22 = add nuw nsw i64 %indvars.iv21, 1
  %26 = load i32, ptr %2, align 8, !tbaa !16
  %27 = sext i32 %26 to i64
  %28 = icmp slt i64 %indvars.iv.next22, %27
  br i1 %28, label %19, label %._crit_edge, !llvm.loop !37

._crit_edge:                                      ; preds = %19, %1, %.preheader
  %.013.lcssa25 = phi i32 [ %spec.select, %.preheader ], [ -1, %1 ], [ %spec.select, %19 ]
  ret i32 %.013.lcssa25
}